(lp0
(lp1
S'./data/MMS_5_T.npy'
p2
aS'./data/MMS_9_T.npy'
p3
aS'./data/MMS_17_T.npy'
p4
aS'./data/MMS_33_T.npy'
p5
aS'./data/MMS_65_T.npy'
p6
aS'./data/MMS_129_T.npy'
p7
aa(lp8
S'./data/MMS_5_L.npy'
p9
aS'./data/MMS_9_L.npy'
p10
aS'./data/MMS_17_L.npy'
p11
aS'./data/MMS_33_L.npy'
p12
aS'./data/MMS_65_L.npy'
p13
aS'./data/MMS_129_L.npy'
p14
aa.